; Function Attrs: mustprogress nofree norecurse nosync nounwind willreturn memory(read, inaccessiblemem: none) uwtable
define hidden noundef ptr @_ZNK7datalog14mk_array_blast10get_selectEP4expr(ptr nocapture noundef nonnull readonly align 8 dereferenceable(540) %this, ptr noundef readonly %e) local_unnamed_addr #7 align 2 {
entry:
  %a = getelementptr inbounds i8, ptr %this, i64 40
  %0 = load i32, ptr %a, align 8
  %m_kind.i.i.i3 = getelementptr inbounds i8, ptr %e, i64 4
  %bf.load.i.i.i4 = load i32, ptr %m_kind.i.i.i3, align 4
  %bf.clear.i.i.i5 = and i32 %bf.load.i.i.i4, 65535
  %cmp.i.i6 = icmp eq i32 %bf.clear.i.i.i5, 0
  br i1 %cmp.i.i6, label %land.rhs.i.i, label %while.end

land.rhs.i.i:                                     ; preds = %entry, %while.body
  %e.addr.07 = phi ptr [ %6, %while.body ], [ %e, %entry ]
  %m_decl.i.i.i = getelementptr inbounds i8, ptr %e.addr.07, i64 16
  %1 = load ptr, ptr %m_decl.i.i.i, align 8
  %m_info.i.i.i.i = getelementptr inbounds i8, ptr %1, i64 24
  %2 = load ptr, ptr %m_info.i.i.i.i, align 8
  %tobool.not.i.i.i.i = icmp eq ptr %2, null
  br i1 %tobool.not.i.i.i.i, label %while.end, label %_ZNK17array_recognizers9is_selectEP4expr.exit

_ZNK17array_recognizers9is_selectEP4expr.exit:    ; preds = %land.rhs.i.i
  %3 = load i32, ptr %2, align 8
  %cmp.i.i.i.i.i = icmp eq i32 %3, %0
  %m_kind.i.i.i.i.i = getelementptr inbounds i8, ptr %2, i64 4
  %4 = load i32, ptr %m_kind.i.i.i.i.i, align 4
  %cmp2.i.i.i.i.i = icmp eq i32 %4, 1
  %5 = select i1 %cmp.i.i.i.i.i, i1 %cmp2.i.i.i.i.i, i1 false
  br i1 %5, label %while.body, label %while.end

while.body:                                       ; preds = %_ZNK17array_recognizers9is_selectEP4expr.exit
  %m_args.i = getelementptr inbounds i8, ptr %e.addr.07, i64 32
  %6 = load ptr, ptr %m_args.i, align 8
  %m_kind.i.i.i = getelementptr inbounds i8, ptr %6, i64 4
  %bf.load.i.i.i = load i32, ptr %m_kind.i.i.i, align 4
  %bf.clear.i.i.i = and i32 %bf.load.i.i.i, 65535
  %cmp.i.i = icmp eq i32 %bf.clear.i.i.i, 0
  br i1 %cmp.i.i, label %land.rhs.i.i, label %while.end, !llvm.loop !4

while.end:                                        ; preds = %_ZNK17array_recognizers9is_selectEP4expr.exit, %while.body, %land.rhs.i.i, %entry
  %e.addr.0.lcssa = phi ptr [ %e, %entry ], [ %e.addr.07, %land.rhs.i.i ], [ %6, %while.body ], [ %e.addr.07, %_ZNK17array_recognizers9is_selectEP4expr.exit ]
  ret ptr %e.addr.0.lcssa
}